target datalayout = "e-m:e-p270:32:32-p271:32:32-p272:64:64-i64:64-i128:128-f80:128-n8:16:32:64-S128"
target triple = "x86_64-pc-linux-gnu"

%struct._address = type { i32, i32, ptr, ptr }
%struct._olc_info_t = type { i16, %struct._channel_info_t, %struct._channel_info_t }
%struct._channel_info_t = type { [32 x i8], ptr, %struct._unicast_addr_t, %struct._unicast_addr_t, i32, i8, i8 }
%struct._unicast_addr_t = type { %struct._address, [16 x i8], i32 }
%struct.h223_lc_params = type { i32, ptr, i8, ptr }

@upcoming_olc = internal global ptr null, align 8
@h223_lc_params_temp = internal global ptr null, align 8
@upcoming_channel = internal global ptr null, align 8
@codec_type = hidden global ptr null, align 8
@ett_h245_T_forwardLogicalChannelParameters = internal global i32 0, align 4
@data_handle = internal global ptr null, align 8
@h245_lc_dissector = internal global ptr null, align 8

; Function Attrs: null_pointer_is_valid sspstrong uwtable
define internal i32 @dissect_h245_T_forwardLogicalChannelParameters(ptr noundef %0, i32 noundef %1, ptr noundef %2, ptr noundef %3, i32 noundef %4) #1 {
  %6 = alloca ptr, align 8
  %7 = alloca i32, align 4
  %8 = alloca ptr, align 8
  %9 = alloca ptr, align 8
  %10 = alloca i32, align 4
  store ptr %0, ptr %6, align 8
  store i32 %1, ptr %7, align 4
  store ptr %2, ptr %8, align 8
  store ptr %3, ptr %9, align 8
  store i32 %4, ptr %10, align 4
  %11 = load ptr, ptr @upcoming_olc, align 8
  %12 = icmp ne ptr %11, null
  br i1 %12, label %13, label %16

13:                                               ; preds = %5
  %14 = load ptr, ptr @upcoming_olc, align 8
  %15 = getelementptr inbounds nuw %struct._olc_info_t, ptr %14, i32 0, i32 1
  br label %17

16:                                               ; preds = %5
  br label %17

17:                                               ; preds = %16, %13
  %18 = phi ptr [ %15, %13 ], [ null, %16 ]
  store ptr %18, ptr @upcoming_channel, align 8
  store ptr null, ptr @h245_lc_dissector, align 8
  %19 = load ptr, ptr %6, align 8
  %20 = load i32, ptr %7, align 4
  %21 = load ptr, ptr %8, align 8
  %22 = load ptr, ptr %9, align 8
  %23 = load i32, ptr %10, align 4
  %24 = load i32, ptr @ett_h245_T_forwardLogicalChannelParameters, align 4
  %25 = call i32 @dissect_per_sequence(ptr noundef %19, i32 noundef %20, ptr noundef %21, ptr noundef %22, i32 noundef %23, i32 noundef %24, ptr noundef @T_forwardLogicalChannelParameters_sequence)
  store i32 %25, ptr %7, align 4
  %26 = load ptr, ptr @h223_lc_params_temp, align 8
  %27 = icmp ne ptr %26, null
  br i1 %27, label %28, label %35

28:                                               ; preds = %17
  %29 = load ptr, ptr @h245_lc_dissector, align 8
  %30 = icmp ne ptr %29, null
  br i1 %30, label %31, label %35

31:                                               ; preds = %28
  %32 = load ptr, ptr @h245_lc_dissector, align 8
  %33 = load ptr, ptr @h223_lc_params_temp, align 8
  %34 = getelementptr inbounds nuw %struct.h223_lc_params, ptr %33, i32 0, i32 3
  store ptr %32, ptr %34, align 8
  br label %43

35:                                               ; preds = %28, %17
  %36 = load ptr, ptr @h223_lc_params_temp, align 8
  %37 = icmp ne ptr %36, null
  br i1 %37, label %38, label %42

38:                                               ; preds = %35
  %39 = load ptr, ptr @data_handle, align 8
  %40 = load ptr, ptr @h223_lc_params_temp, align 8
  %41 = getelementptr inbounds nuw %struct.h223_lc_params, ptr %40, i32 0, i32 3
  store ptr %39, ptr %41, align 8
  br label %42

42:                                               ; preds = %38, %35
  br label %43

43:                                               ; preds = %42, %31
  %44 = load ptr, ptr @upcoming_channel, align 8
  %45 = icmp ne ptr %44, null
  br i1 %45, label %46, label %55

46:                                               ; preds = %43
  %47 = load ptr, ptr @codec_type, align 8
  %48 = icmp ne ptr %47, null
  br i1 %48, label %49, label %55

49:                                               ; preds = %46
  %50 = load ptr, ptr @upcoming_channel, align 8
  %51 = getelementptr inbounds nuw %struct._channel_info_t, ptr %50, i32 0, i32 0
  %52 = getelementptr inbounds [32 x i8], ptr %51, i64 0, i64 0
  %53 = load ptr, ptr @codec_type, align 8
  %54 = call i64 @g_strlcpy(ptr noundef %52, ptr noundef %53, i64 noundef 32)
  br label %55

55:                                               ; preds = %49, %46, %43
  store ptr null, ptr @upcoming_channel, align 8
  %56 = load i32, ptr %7, align 4
  ret i32 %56
}