; Function Attrs: null_pointer_is_valid sspstrong uwtable
define internal i32 @dissect_h245_T_forwardLogicalChannelParameters(ptr noundef %0, i32 noundef %1, ptr noundef %2, ptr noundef %3, i32 noundef %4) #1 {
  %6 = load ptr, ptr @upcoming_olc, align 8
  %.not = icmp eq ptr %6, null
  %7 = getelementptr inbounds nuw i8, ptr %6, i64 8
  %8 = select i1 %.not, ptr null, ptr %7
  store ptr %8, ptr @upcoming_channel, align 8
  store ptr null, ptr @h245_lc_dissector, align 8
  %9 = load i32, ptr @ett_h245_T_forwardLogicalChannelParameters, align 4
  %10 = tail call i32 @dissect_per_sequence(ptr noundef %0, i32 noundef %1, ptr noundef %2, ptr noundef %3, i32 noundef %4, i32 noundef %9, ptr noundef nonnull @T_forwardLogicalChannelParameters_sequence)
  %11 = load ptr, ptr @h223_lc_params_temp, align 8
  %12 = icmp ne ptr %11, null
  %13 = load ptr, ptr @h245_lc_dissector, align 8
  %14 = icmp ne ptr %13, null
  %or.cond = select i1 %12, i1 %14, i1 false
  br i1 %or.cond, label %.sink.split, label %15

15:                                               ; preds = %5
  br i1 %12, label %16, label %19

16:                                               ; preds = %15
  %17 = load ptr, ptr @data_handle, align 8
  br label %.sink.split

.sink.split:                                      ; preds = %5, %16
  %.sink = phi ptr [ %17, %16 ], [ %13, %5 ]
  %18 = getelementptr inbounds nuw i8, ptr %11, i64 24
  store ptr %.sink, ptr %18, align 8
  br label %19

19:                                               ; preds = %.sink.split, %15
  %20 = load ptr, ptr @upcoming_channel, align 8
  %21 = icmp ne ptr %20, null
  %22 = load ptr, ptr @codec_type, align 8
  %23 = icmp ne ptr %22, null
  %or.cond3 = select i1 %21, i1 %23, i1 false
  br i1 %or.cond3, label %24, label %26

24:                                               ; preds = %19
  %25 = tail call i64 @g_strlcpy(ptr noundef nonnull %20, ptr noundef nonnull %22, i64 noundef 32)
  br label %26

26:                                               ; preds = %24, %19
  store ptr null, ptr @upcoming_channel, align 8
  ret i32 %10
}